target datalayout = "e-m:e-p270:32:32-p271:32:32-p272:64:64-i64:64-i128:128-f80:128-n8:16:32:64-S128"
target triple = "x86_64-pc-linux-gnu"

%struct.jpeg_decompress_struct = type { ptr, ptr, ptr, ptr, i32, i32, ptr, i32, i32, i32, i32, i32, i32, i32, double, i32, i32, i32, i32, i32, i32, i32, i32, i32, i32, i32, i32, i32, i32, i32, i32, i32, i32, ptr, i32, i32, i32, i32, i32, ptr, [4 x ptr], [4 x ptr], [4 x ptr], i32, ptr, i32, i32, [16 x i8], [16 x i8], [16 x i8], i32, i32, i8, i8, i8, i16, i16, i32, i8, i32, ptr, i32, i32, i32, i32, ptr, i32, [4 x ptr], i32, i32, i32, [10 x i32], i32, i32, i32, i32, i32, ptr, ptr, ptr, ptr, ptr, ptr, ptr, ptr, ptr, ptr, ptr }

; Function Attrs: nounwind uwtable
define internal void @rgb_rgb565_convert(ptr noundef %0, ptr noundef %1, i32 noundef %2, ptr noundef %3, i32 noundef %4) #0 {
  %6 = alloca ptr, align 8
  %7 = alloca ptr, align 8
  %8 = alloca i32, align 4
  %9 = alloca ptr, align 8
  %10 = alloca i32, align 4
  %11 = alloca ptr, align 8
  %12 = alloca ptr, align 8
  %13 = alloca ptr, align 8
  %14 = alloca ptr, align 8
  %15 = alloca i32, align 4
  %16 = alloca i32, align 4
  %17 = alloca i64, align 8
  %18 = alloca i32, align 4
  %19 = alloca i32, align 4
  %20 = alloca i32, align 4
  %21 = alloca ptr, align 8
  %22 = alloca ptr, align 8
  %23 = alloca i32, align 4
  %24 = alloca ptr, align 8
  %25 = alloca i32, align 4
  %26 = alloca ptr, align 8
  %27 = alloca ptr, align 8
  %28 = alloca ptr, align 8
  %29 = alloca ptr, align 8
  %30 = alloca i32, align 4
  %31 = alloca i32, align 4
  %32 = alloca i64, align 8
  %33 = alloca i32, align 4
  %34 = alloca i32, align 4
  %35 = alloca i32, align 4
  %36 = alloca i32, align 4
  %37 = alloca i32, align 4
  %38 = alloca ptr, align 8
  %39 = alloca ptr, align 8
  %40 = alloca i32, align 4
  %41 = alloca ptr, align 8
  %42 = alloca i32, align 4
  store ptr %0, ptr %38, align 8
  store ptr %1, ptr %39, align 8
  store i32 %2, ptr %40, align 4
  store ptr %3, ptr %41, align 8
  store i32 %4, ptr %42, align 4
  store i32 1, ptr %37, align 4
  %43 = load i8, ptr %37, align 4
  %44 = sext i8 %43 to i32
  %45 = icmp ne i32 %44, 1
  br i1 %45, label %46, label %47

46:                                               ; preds = %5
  store i32 1, ptr %36, align 4
  br label %48

47:                                               ; preds = %5
  store i32 0, ptr %36, align 4
  br label %48

48:                                               ; preds = %47, %46
  %49 = load i32, ptr %36, align 4
  %50 = icmp ne i32 %49, 0
  br i1 %50, label %51, label %230

51:                                               ; preds = %48
  %52 = load ptr, ptr %38, align 8
  %53 = load ptr, ptr %39, align 8
  %54 = load i32, ptr %40, align 4
  %55 = load ptr, ptr %41, align 8
  %56 = load i32, ptr %42, align 4
  store ptr %52, ptr %21, align 8
  store ptr %53, ptr %22, align 8
  store i32 %54, ptr %23, align 4
  store ptr %55, ptr %24, align 8
  store i32 %56, ptr %25, align 4
  %57 = load ptr, ptr %21, align 8
  %58 = getelementptr inbounds %struct.jpeg_decompress_struct, ptr %57, i32 0, i32 27
  %59 = load i32, ptr %58, align 8
  store i32 %59, ptr %31, align 4
  br label %60

60:                                               ; preds = %228, %51
  %61 = load i32, ptr %25, align 4
  %62 = add nsw i32 %61, -1
  store i32 %62, ptr %25, align 4
  %63 = icmp sge i32 %62, 0
  br i1 %63, label %64, label %229

64:                                               ; preds = %60
  %65 = load ptr, ptr %22, align 8
  %66 = load ptr, ptr %65, align 8
  %67 = load i32, ptr %23, align 4
  %68 = zext i32 %67 to i64
  %69 = getelementptr inbounds ptr, ptr %66, i64 %68
  %70 = load ptr, ptr %69, align 8
  store ptr %70, ptr %27, align 8
  %71 = load ptr, ptr %22, align 8
  %72 = getelementptr inbounds ptr, ptr %71, i64 1
  %73 = load ptr, ptr %72, align 8
  %74 = load i32, ptr %23, align 4
  %75 = zext i32 %74 to i64
  %76 = getelementptr inbounds ptr, ptr %73, i64 %75
  %77 = load ptr, ptr %76, align 8
  store ptr %77, ptr %28, align 8
  %78 = load ptr, ptr %22, align 8
  %79 = getelementptr inbounds ptr, ptr %78, i64 2
  %80 = load ptr, ptr %79, align 8
  %81 = load i32, ptr %23, align 4
  %82 = zext i32 %81 to i64
  %83 = getelementptr inbounds ptr, ptr %80, i64 %82
  %84 = load ptr, ptr %83, align 8
  store ptr %84, ptr %29, align 8
  %85 = load i32, ptr %23, align 4
  %86 = add i32 %85, 1
  store i32 %86, ptr %23, align 4
  %87 = load ptr, ptr %24, align 8
  %88 = getelementptr inbounds ptr, ptr %87, i32 1
  store ptr %88, ptr %24, align 8
  %89 = load ptr, ptr %87, align 8
  store ptr %89, ptr %26, align 8
  %90 = load ptr, ptr %26, align 8
  %91 = ptrtoint ptr %90 to i64
  %92 = and i64 %91, 3
  %93 = icmp ne i64 %92, 0
  br i1 %93, label %94, label %128

94:                                               ; preds = %64
  %95 = load ptr, ptr %27, align 8
  %96 = getelementptr inbounds i8, ptr %95, i32 1
  store ptr %96, ptr %27, align 8
  %97 = load i8, ptr %95, align 1
  %98 = zext i8 %97 to i32
  store i32 %98, ptr %33, align 4
  %99 = load ptr, ptr %28, align 8
  %100 = getelementptr inbounds i8, ptr %99, i32 1
  store ptr %100, ptr %28, align 8
  %101 = load i8, ptr %99, align 1
  %102 = zext i8 %101 to i32
  store i32 %102, ptr %34, align 4
  %103 = load ptr, ptr %29, align 8
  %104 = getelementptr inbounds i8, ptr %103, i32 1
  store ptr %104, ptr %29, align 8
  %105 = load i8, ptr %103, align 1
  %106 = zext i8 %105 to i32
  store i32 %106, ptr %35, align 4
  %107 = load i32, ptr %33, align 4
  %108 = and i32 %107, 248
  %109 = load i32, ptr %34, align 4
  %110 = lshr i32 %109, 5
  %111 = or i32 %108, %110
  %112 = load i32, ptr %34, align 4
  %113 = shl i32 %112, 11
  %114 = and i32 %113, 57344
  %115 = or i32 %111, %114
  %116 = load i32, ptr %35, align 4
  %117 = shl i32 %116, 5
  %118 = and i32 %117, 7936
  %119 = or i32 %115, %118
  %120 = zext i32 %119 to i64
  store i64 %120, ptr %32, align 8
  %121 = load i64, ptr %32, align 8
  %122 = trunc i64 %121 to i16
  %123 = load ptr, ptr %26, align 8
  store i16 %122, ptr %123, align 2
  %124 = load ptr, ptr %26, align 8
  %125 = getelementptr inbounds i8, ptr %124, i64 2
  store ptr %125, ptr %26, align 8
  %126 = load i32, ptr %31, align 4
  %127 = add i32 %126, -1
  store i32 %127, ptr %31, align 4
  br label %128

128:                                              ; preds = %94, %64
  store i32 0, ptr %30, align 4
  br label %129

129:                                              ; preds = %134, %128
  %130 = load i32, ptr %30, align 4
  %131 = load i32, ptr %31, align 4
  %132 = lshr i32 %131, 1
  %133 = icmp ult i32 %130, %132
  br i1 %133, label %134, label %197

134:                                              ; preds = %129
  %135 = load ptr, ptr %27, align 8
  %136 = getelementptr inbounds i8, ptr %135, i32 1
  store ptr %136, ptr %27, align 8
  %137 = load i8, ptr %135, align 1
  %138 = zext i8 %137 to i32
  store i32 %138, ptr %33, align 4
  %139 = load ptr, ptr %28, align 8
  %140 = getelementptr inbounds i8, ptr %139, i32 1
  store ptr %140, ptr %28, align 8
  %141 = load i8, ptr %139, align 1
  %142 = zext i8 %141 to i32
  store i32 %142, ptr %34, align 4
  %143 = load ptr, ptr %29, align 8
  %144 = getelementptr inbounds i8, ptr %143, i32 1
  store ptr %144, ptr %29, align 8
  %145 = load i8, ptr %143, align 1
  %146 = zext i8 %145 to i32
  store i32 %146, ptr %35, align 4
  %147 = load i32, ptr %33, align 4
  %148 = and i32 %147, 248
  %149 = load i32, ptr %34, align 4
  %150 = lshr i32 %149, 5
  %151 = or i32 %148, %150
  %152 = load i32, ptr %34, align 4
  %153 = shl i32 %152, 11
  %154 = and i32 %153, 57344
  %155 = or i32 %151, %154
  %156 = load i32, ptr %35, align 4
  %157 = shl i32 %156, 5
  %158 = and i32 %157, 7936
  %159 = or i32 %155, %158
  %160 = zext i32 %159 to i64
  store i64 %160, ptr %32, align 8
  %161 = load ptr, ptr %27, align 8
  %162 = getelementptr inbounds i8, ptr %161, i32 1
  store ptr %162, ptr %27, align 8
  %163 = load i8, ptr %161, align 1
  %164 = zext i8 %163 to i32
  store i32 %164, ptr %33, align 4
  %165 = load ptr, ptr %28, align 8
  %166 = getelementptr inbounds i8, ptr %165, i32 1
  store ptr %166, ptr %28, align 8
  %167 = load i8, ptr %165, align 1
  %168 = zext i8 %167 to i32
  store i32 %168, ptr %34, align 4
  %169 = load ptr, ptr %29, align 8
  %170 = getelementptr inbounds i8, ptr %169, i32 1
  store ptr %170, ptr %29, align 8
  %171 = load i8, ptr %169, align 1
  %172 = zext i8 %171 to i32
  store i32 %172, ptr %35, align 4
  %173 = load i64, ptr %32, align 8
  %174 = shl i64 %173, 16
  %175 = load i32, ptr %33, align 4
  %176 = and i32 %175, 248
  %177 = load i32, ptr %34, align 4
  %178 = lshr i32 %177, 5
  %179 = or i32 %176, %178
  %180 = load i32, ptr %34, align 4
  %181 = shl i32 %180, 11
  %182 = and i32 %181, 57344
  %183 = or i32 %179, %182
  %184 = load i32, ptr %35, align 4
  %185 = shl i32 %184, 5
  %186 = and i32 %185, 7936
  %187 = or i32 %183, %186
  %188 = zext i32 %187 to i64
  %189 = or i64 %174, %188
  store i64 %189, ptr %32, align 8
  %190 = load i64, ptr %32, align 8
  %191 = trunc i64 %190 to i32
  %192 = load ptr, ptr %26, align 8
  store i32 %191, ptr %192, align 4
  %193 = load ptr, ptr %26, align 8
  %194 = getelementptr inbounds i8, ptr %193, i64 4
  store ptr %194, ptr %26, align 8
  %195 = load i32, ptr %30, align 4
  %196 = add i32 %195, 1
  store i32 %196, ptr %30, align 4
  br label %129, !llvm.loop !67

197:                                              ; preds = %129
  %198 = load i32, ptr %31, align 4
  %199 = and i32 %198, 1
  %200 = icmp ne i32 %199, 0
  br i1 %200, label %201, label %228

201:                                              ; preds = %197
  %202 = load ptr, ptr %27, align 8
  %203 = load i8, ptr %202, align 1
  %204 = zext i8 %203 to i32
  store i32 %204, ptr %33, align 4
  %205 = load ptr, ptr %28, align 8
  %206 = load i8, ptr %205, align 1
  %207 = zext i8 %206 to i32
  store i32 %207, ptr %34, align 4
  %208 = load ptr, ptr %29, align 8
  %209 = load i8, ptr %208, align 1
  %210 = zext i8 %209 to i32
  store i32 %210, ptr %35, align 4
  %211 = load i32, ptr %33, align 4
  %212 = and i32 %211, 248
  %213 = load i32, ptr %34, align 4
  %214 = lshr i32 %213, 5
  %215 = or i32 %212, %214
  %216 = load i32, ptr %34, align 4
  %217 = shl i32 %216, 11
  %218 = and i32 %217, 57344
  %219 = or i32 %215, %218
  %220 = load i32, ptr %35, align 4
  %221 = shl i32 %220, 5
  %222 = and i32 %221, 7936
  %223 = or i32 %219, %222
  %224 = zext i32 %223 to i64
  store i64 %224, ptr %32, align 8
  %225 = load i64, ptr %32, align 8
  %226 = trunc i64 %225 to i16
  %227 = load ptr, ptr %26, align 8
  store i16 %226, ptr %227, align 2
  br label %228

228:                                              ; preds = %201, %197
  br label %60, !llvm.loop !68

229:                                              ; preds = %60
  br label %397

230:                                              ; preds = %48
  %231 = load ptr, ptr %38, align 8
  %232 = load ptr, ptr %39, align 8
  %233 = load i32, ptr %40, align 4
  %234 = load ptr, ptr %41, align 8
  %235 = load i32, ptr %42, align 4
  store ptr %231, ptr %6, align 8
  store ptr %232, ptr %7, align 8
  store i32 %233, ptr %8, align 4
  store ptr %234, ptr %9, align 8
  store i32 %235, ptr %10, align 4
  %236 = load ptr, ptr %6, align 8
  %237 = getelementptr inbounds %struct.jpeg_decompress_struct, ptr %236, i32 0, i32 27
  %238 = load i32, ptr %237, align 8
  store i32 %238, ptr %16, align 4
  br label %239

239:                                              ; preds = %395, %230
  %240 = load i32, ptr %10, align 4
  %241 = add nsw i32 %240, -1
  store i32 %241, ptr %10, align 4
  %242 = icmp sge i32 %241, 0
  br i1 %242, label %243, label %396

243:                                              ; preds = %239
  %244 = load ptr, ptr %7, align 8
  %245 = load ptr, ptr %244, align 8
  %246 = load i32, ptr %8, align 4
  %247 = zext i32 %246 to i64
  %248 = getelementptr inbounds ptr, ptr %245, i64 %247
  %249 = load ptr, ptr %248, align 8
  store ptr %249, ptr %12, align 8
  %250 = load ptr, ptr %7, align 8
  %251 = getelementptr inbounds ptr, ptr %250, i64 1
  %252 = load ptr, ptr %251, align 8
  %253 = load i32, ptr %8, align 4
  %254 = zext i32 %253 to i64
  %255 = getelementptr inbounds ptr, ptr %252, i64 %254
  %256 = load ptr, ptr %255, align 8
  store ptr %256, ptr %13, align 8
  %257 = load ptr, ptr %7, align 8
  %258 = getelementptr inbounds ptr, ptr %257, i64 2
  %259 = load ptr, ptr %258, align 8
  %260 = load i32, ptr %8, align 4
  %261 = zext i32 %260 to i64
  %262 = getelementptr inbounds ptr, ptr %259, i64 %261
  %263 = load ptr, ptr %262, align 8
  store ptr %263, ptr %14, align 8
  %264 = load i32, ptr %8, align 4
  %265 = add i32 %264, 1
  store i32 %265, ptr %8, align 4
  %266 = load ptr, ptr %9, align 8
  %267 = getelementptr inbounds ptr, ptr %266, i32 1
  store ptr %267, ptr %9, align 8
  %268 = load ptr, ptr %266, align 8
  store ptr %268, ptr %11, align 8
  %269 = load ptr, ptr %11, align 8
  %270 = ptrtoint ptr %269 to i64
  %271 = and i64 %270, 3
  %272 = icmp ne i64 %271, 0
  br i1 %272, label %273, label %304

273:                                              ; preds = %243
  %274 = load ptr, ptr %12, align 8
  %275 = getelementptr inbounds i8, ptr %274, i32 1
  store ptr %275, ptr %12, align 8
  %276 = load i8, ptr %274, align 1
  %277 = zext i8 %276 to i32
  store i32 %277, ptr %18, align 4
  %278 = load ptr, ptr %13, align 8
  %279 = getelementptr inbounds i8, ptr %278, i32 1
  store ptr %279, ptr %13, align 8
  %280 = load i8, ptr %278, align 1
  %281 = zext i8 %280 to i32
  store i32 %281, ptr %19, align 4
  %282 = load ptr, ptr %14, align 8
  %283 = getelementptr inbounds i8, ptr %282, i32 1
  store ptr %283, ptr %14, align 8
  %284 = load i8, ptr %282, align 1
  %285 = zext i8 %284 to i32
  store i32 %285, ptr %20, align 4
  %286 = load i32, ptr %18, align 4
  %287 = shl i32 %286, 8
  %288 = and i32 %287, 63488
  %289 = load i32, ptr %19, align 4
  %290 = shl i32 %289, 3
  %291 = and i32 %290, 2016
  %292 = or i32 %288, %291
  %293 = load i32, ptr %20, align 4
  %294 = lshr i32 %293, 3
  %295 = or i32 %292, %294
  %296 = zext i32 %295 to i64
  store i64 %296, ptr %17, align 8
  %297 = load i64, ptr %17, align 8
  %298 = trunc i64 %297 to i16
  %299 = load ptr, ptr %11, align 8
  store i16 %298, ptr %299, align 2
  %300 = load ptr, ptr %11, align 8
  %301 = getelementptr inbounds i8, ptr %300, i64 2
  store ptr %301, ptr %11, align 8
  %302 = load i32, ptr %16, align 4
  %303 = add i32 %302, -1
  store i32 %303, ptr %16, align 4
  br label %304

304:                                              ; preds = %273, %243
  store i32 0, ptr %15, align 4
  br label %305

305:                                              ; preds = %310, %304
  %306 = load i32, ptr %15, align 4
  %307 = load i32, ptr %16, align 4
  %308 = lshr i32 %307, 1
  %309 = icmp ult i32 %306, %308
  br i1 %309, label %310, label %367

310:                                              ; preds = %305
  %311 = load ptr, ptr %12, align 8
  %312 = getelementptr inbounds i8, ptr %311, i32 1
  store ptr %312, ptr %12, align 8
  %313 = load i8, ptr %311, align 1
  %314 = zext i8 %313 to i32
  store i32 %314, ptr %18, align 4
  %315 = load ptr, ptr %13, align 8
  %316 = getelementptr inbounds i8, ptr %315, i32 1
  store ptr %316, ptr %13, align 8
  %317 = load i8, ptr %315, align 1
  %318 = zext i8 %317 to i32
  store i32 %318, ptr %19, align 4
  %319 = load ptr, ptr %14, align 8
  %320 = getelementptr inbounds i8, ptr %319, i32 1
  store ptr %320, ptr %14, align 8
  %321 = load i8, ptr %319, align 1
  %322 = zext i8 %321 to i32
  store i32 %322, ptr %20, align 4
  %323 = load i32, ptr %18, align 4
  %324 = shl i32 %323, 8
  %325 = and i32 %324, 63488
  %326 = load i32, ptr %19, align 4
  %327 = shl i32 %326, 3
  %328 = and i32 %327, 2016
  %329 = or i32 %325, %328
  %330 = load i32, ptr %20, align 4
  %331 = lshr i32 %330, 3
  %332 = or i32 %329, %331
  %333 = zext i32 %332 to i64
  store i64 %333, ptr %17, align 8
  %334 = load ptr, ptr %12, align 8
  %335 = getelementptr inbounds i8, ptr %334, i32 1
  store ptr %335, ptr %12, align 8
  %336 = load i8, ptr %334, align 1
  %337 = zext i8 %336 to i32
  store i32 %337, ptr %18, align 4
  %338 = load ptr, ptr %13, align 8
  %339 = getelementptr inbounds i8, ptr %338, i32 1
  store ptr %339, ptr %13, align 8
  %340 = load i8, ptr %338, align 1
  %341 = zext i8 %340 to i32
  store i32 %341, ptr %19, align 4
  %342 = load ptr, ptr %14, align 8
  %343 = getelementptr inbounds i8, ptr %342, i32 1
  store ptr %343, ptr %14, align 8
  %344 = load i8, ptr %342, align 1
  %345 = zext i8 %344 to i32
  store i32 %345, ptr %20, align 4
  %346 = load i32, ptr %18, align 4
  %347 = shl i32 %346, 8
  %348 = and i32 %347, 63488
  %349 = load i32, ptr %19, align 4
  %350 = shl i32 %349, 3
  %351 = and i32 %350, 2016
  %352 = or i32 %348, %351
  %353 = load i32, ptr %20, align 4
  %354 = lshr i32 %353, 3
  %355 = or i32 %352, %354
  %356 = shl i32 %355, 16
  %357 = zext i32 %356 to i64
  %358 = load i64, ptr %17, align 8
  %359 = or i64 %357, %358
  store i64 %359, ptr %17, align 8
  %360 = load i64, ptr %17, align 8
  %361 = trunc i64 %360 to i32
  %362 = load ptr, ptr %11, align 8
  store i32 %361, ptr %362, align 4
  %363 = load ptr, ptr %11, align 8
  %364 = getelementptr inbounds i8, ptr %363, i64 4
  store ptr %364, ptr %11, align 8
  %365 = load i32, ptr %15, align 4
  %366 = add i32 %365, 1
  store i32 %366, ptr %15, align 4
  br label %305, !llvm.loop !69

367:                                              ; preds = %305
  %368 = load i32, ptr %16, align 4
  %369 = and i32 %368, 1
  %370 = icmp ne i32 %369, 0
  br i1 %370, label %371, label %395

371:                                              ; preds = %367
  %372 = load ptr, ptr %12, align 8
  %373 = load i8, ptr %372, align 1
  %374 = zext i8 %373 to i32
  store i32 %374, ptr %18, align 4
  %375 = load ptr, ptr %13, align 8
  %376 = load i8, ptr %375, align 1
  %377 = zext i8 %376 to i32
  store i32 %377, ptr %19, align 4
  %378 = load ptr, ptr %14, align 8
  %379 = load i8, ptr %378, align 1
  %380 = zext i8 %379 to i32
  store i32 %380, ptr %20, align 4
  %381 = load i32, ptr %18, align 4
  %382 = shl i32 %381, 8
  %383 = and i32 %382, 63488
  %384 = load i32, ptr %19, align 4
  %385 = shl i32 %384, 3
  %386 = and i32 %385, 2016
  %387 = or i32 %383, %386
  %388 = load i32, ptr %20, align 4
  %389 = lshr i32 %388, 3
  %390 = or i32 %387, %389
  %391 = zext i32 %390 to i64
  store i64 %391, ptr %17, align 8
  %392 = load i64, ptr %17, align 8
  %393 = trunc i64 %392 to i16
  %394 = load ptr, ptr %11, align 8
  store i16 %393, ptr %394, align 2
  br label %395

395:                                              ; preds = %371, %367
  br label %239, !llvm.loop !70

396:                                              ; preds = %239
  br label %397

397:                                              ; preds = %396, %229
  ret void
}