; Function Attrs: nofree norecurse nosync nounwind memory(readwrite, inaccessiblemem: none) uwtable
define internal void @rgb_rgb565_convert(ptr nocapture noundef readonly %0, ptr nocapture noundef readonly %1, i32 noundef %2, ptr nocapture noundef readonly %3, i32 noundef %4) #2 {
  %6 = icmp sgt i32 %4, 0
  br i1 %6, label %.lr.ph154, label %._crit_edge155

.lr.ph154:                                        ; preds = %5
  %7 = getelementptr inbounds i8, ptr %0, i64 136
  %8 = load i32, ptr %7, align 8
  %9 = getelementptr inbounds i8, ptr %1, i64 8
  %10 = getelementptr inbounds i8, ptr %1, i64 16
  br label %11

11:                                               ; preds = %.lr.ph154, %100
  %.in = phi i32 [ %4, %.lr.ph154 ], [ %12, %100 ]
  %.0152 = phi i32 [ %2, %.lr.ph154 ], [ %23, %100 ]
  %.0112151 = phi ptr [ %3, %.lr.ph154 ], [ %24, %100 ]
  %.0137150 = phi i32 [ %8, %.lr.ph154 ], [ %.1138, %100 ]
  %12 = add nsw i32 %.in, -1
  %13 = load ptr, ptr %1, align 8
  %14 = zext i32 %.0152 to i64
  %15 = getelementptr inbounds ptr, ptr %13, i64 %14
  %16 = load ptr, ptr %15, align 8
  %17 = load ptr, ptr %9, align 8
  %18 = getelementptr inbounds ptr, ptr %17, i64 %14
  %19 = load ptr, ptr %18, align 8
  %20 = load ptr, ptr %10, align 8
  %21 = getelementptr inbounds ptr, ptr %20, i64 %14
  %22 = load ptr, ptr %21, align 8
  %23 = add i32 %.0152, 1
  %24 = getelementptr inbounds i8, ptr %.0112151, i64 8
  %25 = load ptr, ptr %.0112151, align 8
  %26 = ptrtoint ptr %25 to i64
  %27 = and i64 %26, 3
  %.not = icmp eq i64 %27, 0
  br i1 %.not, label %47, label %28

28:                                               ; preds = %11
  %29 = getelementptr inbounds i8, ptr %16, i64 1
  %30 = load i8, ptr %16, align 1
  %31 = zext i8 %30 to i16
  %32 = getelementptr inbounds i8, ptr %19, i64 1
  %33 = load i8, ptr %19, align 1
  %34 = zext i8 %33 to i16
  %35 = getelementptr inbounds i8, ptr %22, i64 1
  %36 = load i8, ptr %22, align 1
  %37 = shl nuw i16 %31, 8
  %38 = and i16 %37, -2048
  %39 = shl nuw nsw i16 %34, 3
  %40 = and i16 %39, 2016
  %41 = or disjoint i16 %40, %38
  %42 = lshr i8 %36, 3
  %43 = zext nneg i8 %42 to i16
  %44 = or disjoint i16 %41, %43
  store i16 %44, ptr %25, align 2
  %45 = getelementptr inbounds i8, ptr %25, i64 2
  %46 = add i32 %.0137150, -1
  br label %47

47:                                               ; preds = %28, %11
  %.1138 = phi i32 [ %46, %28 ], [ %.0137150, %11 ]
  %.0119 = phi ptr [ %35, %28 ], [ %22, %11 ]
  %.0117 = phi ptr [ %32, %28 ], [ %19, %11 ]
  %.0115 = phi ptr [ %29, %28 ], [ %16, %11 ]
  %.0114 = phi ptr [ %45, %28 ], [ %25, %11 ]
  %48 = lshr i32 %.1138, 1
  %.not156 = icmp ult i32 %.1138, 2
  br i1 %.not156, label %._crit_edge, label %.lr.ph

.lr.ph:                                           ; preds = %47, %.lr.ph
  %.1146 = phi ptr [ %83, %.lr.ph ], [ %.0114, %47 ]
  %.1116145 = phi ptr [ %65, %.lr.ph ], [ %.0115, %47 ]
  %.1118144 = phi ptr [ %68, %.lr.ph ], [ %.0117, %47 ]
  %.1120143 = phi ptr [ %71, %.lr.ph ], [ %.0119, %47 ]
  %.0136142 = phi i32 [ %84, %.lr.ph ], [ 0, %47 ]
  %49 = getelementptr inbounds i8, ptr %.1116145, i64 1
  %50 = load i8, ptr %.1116145, align 1
  %51 = zext i8 %50 to i32
  %52 = getelementptr inbounds i8, ptr %.1118144, i64 1
  %53 = load i8, ptr %.1118144, align 1
  %54 = zext i8 %53 to i32
  %55 = getelementptr inbounds i8, ptr %.1120143, i64 1
  %56 = load i8, ptr %.1120143, align 1
  %57 = shl nuw nsw i32 %51, 8
  %58 = and i32 %57, 63488
  %59 = shl nuw nsw i32 %54, 3
  %60 = and i32 %59, 2016
  %61 = or disjoint i32 %60, %58
  %62 = lshr i8 %56, 3
  %63 = zext nneg i8 %62 to i32
  %64 = or disjoint i32 %61, %63
  %65 = getelementptr inbounds i8, ptr %.1116145, i64 2
  %66 = load i8, ptr %49, align 1
  %67 = zext i8 %66 to i32
  %68 = getelementptr inbounds i8, ptr %.1118144, i64 2
  %69 = load i8, ptr %52, align 1
  %70 = zext i8 %69 to i32
  %71 = getelementptr inbounds i8, ptr %.1120143, i64 2
  %72 = load i8, ptr %55, align 1
  %73 = shl nuw nsw i32 %67, 8
  %74 = and i32 %73, 63488
  %75 = shl nuw nsw i32 %70, 3
  %76 = and i32 %75, 2016
  %77 = or disjoint i32 %74, %76
  %78 = lshr i8 %72, 3
  %79 = zext nneg i8 %78 to i32
  %80 = or disjoint i32 %77, %79
  %81 = shl nuw i32 %80, 16
  %82 = or disjoint i32 %64, %81
  store i32 %82, ptr %.1146, align 4
  %83 = getelementptr inbounds i8, ptr %.1146, i64 4
  %84 = add nuw nsw i32 %.0136142, 1
  %exitcond.not = icmp eq i32 %84, %48
  br i1 %exitcond.not, label %._crit_edge, label %.lr.ph, !llvm.loop !63

._crit_edge:                                      ; preds = %.lr.ph, %47
  %.1120.lcssa = phi ptr [ %.0119, %47 ], [ %71, %.lr.ph ]
  %.1118.lcssa = phi ptr [ %.0117, %47 ], [ %68, %.lr.ph ]
  %.1116.lcssa = phi ptr [ %.0115, %47 ], [ %65, %.lr.ph ]
  %.1.lcssa = phi ptr [ %.0114, %47 ], [ %83, %.lr.ph ]
  %85 = and i32 %.1138, 1
  %.not141 = icmp eq i32 %85, 0
  br i1 %.not141, label %100, label %86

86:                                               ; preds = %._crit_edge
  %87 = load i8, ptr %.1116.lcssa, align 1
  %88 = zext i8 %87 to i16
  %89 = load i8, ptr %.1118.lcssa, align 1
  %90 = zext i8 %89 to i16
  %91 = load i8, ptr %.1120.lcssa, align 1
  %92 = shl nuw i16 %88, 8
  %93 = and i16 %92, -2048
  %94 = shl nuw nsw i16 %90, 3
  %95 = and i16 %94, 2016
  %96 = or disjoint i16 %95, %93
  %97 = lshr i8 %91, 3
  %98 = zext nneg i8 %97 to i16
  %99 = or disjoint i16 %96, %98
  store i16 %99, ptr %.1.lcssa, align 2
  br label %100

100:                                              ; preds = %86, %._crit_edge
  %101 = icmp sgt i32 %.in, 1
  br i1 %101, label %11, label %._crit_edge155, !llvm.loop !64

._crit_edge155:                                   ; preds = %100, %5
  ret void
}